(lp0
(dp1
S'pk'
p2
I1
sS'model'
p3
Vuserarea.postalcode
p4
sS'fields'
p5
(dp6
S'postalcode'
p7
V101
p8
sS'city'
p9
I1
ssa(dp10
g2
I2
sg3
Vuserarea.postalcode
p11
sg5
(dp12
g7
V102
p13
sg9
I1
ssa(dp14
g2
I3
sg3
Vuserarea.postalcode
p15
sg5
(dp16
g7
V103
p17
sg9
I1
ssa(dp18
g2
I4
sg3
Vuserarea.postalcode
p19
sg5
(dp20
g7
V104
p21
sg9
I1
ssa(dp22
g2
I5
sg3
Vuserarea.postalcode
p23
sg5
(dp24
g7
V105
p25
sg9
I1
ssa(dp26
g2
I6
sg3
Vuserarea.postalcode
p27
sg5
(dp28
g7
V107
p29
sg9
I1
ssa(dp30
g2
I7
sg3
Vuserarea.postalcode
p31
sg5
(dp32
g7
V108
p33
sg9
I1
ssa(dp34
g2
I8
sg3
Vuserarea.postalcode
p35
sg5
(dp36
g7
V109
p37
sg9
I1
ssa(dp38
g2
I9
sg3
Vuserarea.postalcode
p39
sg5
(dp40
g7
V110
p41
sg9
I1
ssa(dp42
g2
I10
sg3
Vuserarea.postalcode
p43
sg5
(dp44
g7
V111
p45
sg9
I1
ssa(dp46
g2
I11
sg3
Vuserarea.postalcode
p47
sg5
(dp48
g7
V112
p49
sg9
I1
ssa(dp50
g2
I12
sg3
Vuserarea.postalcode
p51
sg5
(dp52
g7
V113
p53
sg9
I1
ssa(dp54
g2
I13
sg3
Vuserarea.postalcode
p55
sg5
(dp56
g7
V116
p57
sg9
I2
ssa(dp58
g2
I14
sg3
Vuserarea.postalcode
p59
sg5
(dp60
g7
V121
p61
sg9
I1
ssa(dp62
g2
I15
sg3
Vuserarea.postalcode
p63
sg5
(dp64
g7
V123
p65
sg9
I1
ssa(dp66
g2
I16
sg3
Vuserarea.postalcode
p67
sg5
(dp68
g7
V124
p69
sg9
I1
ssa(dp70
g2
I17
sg3
Vuserarea.postalcode
p71
sg5
(dp72
g7
V125
p73
sg9
I1
ssa(dp74
g2
I18
sg3
Vuserarea.postalcode
p75
sg5
(dp76
g7
V127
p77
sg9
I1
ssa(dp78
g2
I19
sg3
Vuserarea.postalcode
p79
sg5
(dp80
g7
V128
p81
sg9
I1
ssa(dp82
g2
I20
sg3
Vuserarea.postalcode
p83
sg5
(dp84
g7
V129
p85
sg9
I1
ssa(dp86
g2
I21
sg3
Vuserarea.postalcode
p87
sg5
(dp88
g7
V130
p89
sg9
I1
ssa(dp90
g2
I22
sg3
Vuserarea.postalcode
p91
sg5
(dp92
g7
V132
p93
sg9
I1
ssa(dp94
g2
I23
sg3
Vuserarea.postalcode
p95
sg5
(dp96
g7
V150
p97
sg9
I1
ssa(dp98
g2
I24
sg3
Vuserarea.postalcode
p99
sg5
(dp100
g7
V155
p101
sg9
I1
ssa(dp102
g2
I25
sg3
Vuserarea.postalcode
p103
sg5
(dp104
g7
V170
p105
sg9
I3
ssa(dp106
g2
I26
sg3
Vuserarea.postalcode
p107
sg5
(dp108
g7
V172
p109
sg9
I3
ssa(dp110
g2
I27
sg3
Vuserarea.postalcode
p111
sg5
(dp112
g7
V190
p113
sg9
I4
ssa(dp114
g2
I28
sg3
Vuserarea.postalcode
p115
sg5
(dp116
g7
V200
p117
sg9
I5
ssa(dp118
g2
I29
sg3
Vuserarea.postalcode
p119
sg5
(dp120
g7
V201
p121
sg9
I5
ssa(dp122
g2
I30
sg3
Vuserarea.postalcode
p123
sg5
(dp124
g7
V202
p125
sg9
I5
ssa(dp126
g2
I31
sg3
Vuserarea.postalcode
p127
sg5
(dp128
g7
V203
p129
sg9
I5
ssa(dp130
g2
I32
sg3
Vuserarea.postalcode
p131
sg5
(dp132
g7
V210
p133
sg9
I6
ssa(dp134
g2
I33
sg3
Vuserarea.postalcode
p135
sg5
(dp136
g7
V212
p137
sg9
I6
ssa(dp138
g2
I34
sg3
Vuserarea.postalcode
p139
sg5
(dp140
g7
V220
p141
sg9
I7
ssa(dp142
g2
I35
sg3
Vuserarea.postalcode
p143
sg5
(dp144
g7
V221
p145
sg9
I7
ssa(dp146
g2
I36
sg3
Vuserarea.postalcode
p147
sg5
(dp148
g7
V222
p149
sg9
I7
ssa(dp150
g2
I37
sg3
Vuserarea.postalcode
p151
sg5
(dp152
g7
V225
p153
sg9
I8
ssa(dp154
g2
I38
sg3
Vuserarea.postalcode
p155
sg5
(dp156
g7
V230
p157
sg9
I9
ssa(dp158
g2
I39
sg3
Vuserarea.postalcode
p159
sg5
(dp160
g7
V232
p161
sg9
I9
ssa(dp162
g2
I40
sg3
Vuserarea.postalcode
p163
sg5
(dp164
g7
V233
p165
sg9
I9
ssa(dp166
g2
I41
sg3
Vuserarea.postalcode
p167
sg5
(dp168
g7
V235
p169
sg9
I10
ssa(dp170
g2
I42
sg3
Vuserarea.postalcode
p171
sg5
(dp172
g7
V240
p173
sg9
I11
ssa(dp174
g2
I43
sg3
Vuserarea.postalcode
p175
sg5
(dp176
g7
V245
p177
sg9
I12
ssa(dp178
g2
I44
sg3
Vuserarea.postalcode
p179
sg5
(dp180
g7
V250
p181
sg9
I13
ssa(dp182
g2
I45
sg3
Vuserarea.postalcode
p183
sg5
(dp184
g7
V260
p185
sg9
I9
ssa(dp186
g2
I46
sg3
Vuserarea.postalcode
p187
sg5
(dp188
g7
V270
p189
sg9
I14
ssa(dp190
g2
I47
sg3
Vuserarea.postalcode
p191
sg5
(dp192
g7
V300
p193
sg9
I15
ssa(dp194
g2
I48
sg3
Vuserarea.postalcode
p195
sg5
(dp196
g7
V301
p197
sg9
I15
ssa(dp198
g2
I49
sg3
Vuserarea.postalcode
p199
sg5
(dp200
g7
V302
p201
sg9
I15
ssa(dp202
g2
I50
sg3
Vuserarea.postalcode
p203
sg5
(dp204
g7
V310
p205
sg9
I16
ssa(dp206
g2
I51
sg3
Vuserarea.postalcode
p207
sg5
(dp208
g7
V311
p209
sg9
I16
ssa(dp210
g2
I52
sg3
Vuserarea.postalcode
p211
sg5
(dp212
g7
V320
p213
sg9
I17
ssa(dp214
g2
I53
sg3
Vuserarea.postalcode
p215
sg5
(dp216
g7
V340
p217
sg9
I18
ssa(dp218
g2
I54
sg3
Vuserarea.postalcode
p219
sg5
(dp220
g7
V345
p221
sg9
I19
ssa(dp222
g2
I55
sg3
Vuserarea.postalcode
p223
sg5
(dp224
g7
V350
p225
sg9
I20
ssa(dp226
g2
I56
sg3
Vuserarea.postalcode
p227
sg5
(dp228
g7
V355
p229
sg9
I21
ssa(dp230
g2
I57
sg3
Vuserarea.postalcode
p231
sg5
(dp232
g7
V356
p233
sg9
I22
ssa(dp234
g2
I58
sg3
Vuserarea.postalcode
p235
sg5
(dp236
g7
V360
p237
sg9
I23
ssa(dp238
g2
I59
sg3
Vuserarea.postalcode
p239
sg5
(dp240
g7
V370
p241
sg9
I24
ssa(dp242
g2
I60
sg3
Vuserarea.postalcode
p243
sg5
(dp244
g7
V371
p245
sg9
I24
ssa(dp246
g2
I61
sg3
Vuserarea.postalcode
p247
sg5
(dp248
g7
V380
p249
sg9
I25
ssa(dp250
g2
I62
sg3
Vuserarea.postalcode
p251
sg5
(dp252
g7
V400
p253
sg9
I26
ssa(dp254
g2
I63
sg3
Vuserarea.postalcode
p255
sg5
(dp256
g7
V401
p257
sg9
I26
ssa(dp258
g2
I64
sg3
Vuserarea.postalcode
p259
sg5
(dp260
g7
V410
p261
sg9
I27
ssa(dp262
g2
I65
sg3
Vuserarea.postalcode
p263
sg5
(dp264
g7
V415
p265
sg9
I28
ssa(dp266
g2
I66
sg3
Vuserarea.postalcode
p267
sg5
(dp268
g7
V420
p269
sg9
I29
ssa(dp270
g2
I67
sg3
Vuserarea.postalcode
p271
sg5
(dp272
g7
V425
p273
sg9
I30
ssa(dp274
g2
I68
sg3
Vuserarea.postalcode
p275
sg5
(dp276
g7
V430
p277
sg9
I31
ssa(dp278
g2
I69
sg3
Vuserarea.postalcode
p279
sg5
(dp280
g7
V450
p281
sg9
I32
ssa(dp282
g2
I70
sg3
Vuserarea.postalcode
p283
sg5
(dp284
g7
V451
p285
sg9
I32
ssa(dp286
g2
I71
sg3
Vuserarea.postalcode
p287
sg5
(dp288
g7
V460
p289
sg9
I33
ssa(dp290
g2
I72
sg3
Vuserarea.postalcode
p291
sg5
(dp292
g7
V465
p293
sg9
I34
ssa(dp294
g2
I73
sg3
Vuserarea.postalcode
p295
sg5
(dp296
g7
V470
p297
sg9
I35
ssa(dp298
g2
I74
sg3
Vuserarea.postalcode
p299
sg5
(dp300
g7
V471
p301
sg9
I35
ssa(dp302
g2
I75
sg3
Vuserarea.postalcode
p303
sg5
(dp304
g7
V500
p305
sg9
I36
ssa(dp306
g2
I76
sg3
Vuserarea.postalcode
p307
sg5
(dp308
g7
V510
p309
sg9
I37
ssa(dp310
g2
I77
sg3
Vuserarea.postalcode
p311
sg5
(dp312
g7
V512
p313
sg9
I37
ssa(dp314
g2
I78
sg3
Vuserarea.postalcode
p315
sg5
(dp316
g7
V520
p317
sg9
I38
ssa(dp318
g2
I79
sg3
Vuserarea.postalcode
p319
sg5
(dp320
g7
V522
p321
sg9
I39
ssa(dp322
g2
I80
sg3
Vuserarea.postalcode
p323
sg5
(dp324
g7
V523
p325
sg9
I40
ssa(dp326
g2
I81
sg3
Vuserarea.postalcode
p327
sg5
(dp328
g7
V524
p329
sg9
I41
ssa(dp330
g2
I82
sg3
Vuserarea.postalcode
p331
sg5
(dp332
g7
V530
p333
sg9
I42
ssa(dp334
g2
I83
sg3
Vuserarea.postalcode
p335
sg5
(dp336
g7
V531
p337
sg9
I42
ssa(dp338
g2
I84
sg3
Vuserarea.postalcode
p339
sg5
(dp340
g7
V540
p341
sg9
I43
ssa(dp342
g2
I85
sg3
Vuserarea.postalcode
p343
sg5
(dp344
g7
V541
p345
sg9
I43
ssa(dp346
g2
I86
sg3
Vuserarea.postalcode
p347
sg5
(dp348
g7
V545
p349
sg9
I44
ssa(dp350
g2
I87
sg3
Vuserarea.postalcode
p351
sg5
(dp352
g7
V550
p353
sg9
I45
ssa(dp354
g2
I88
sg3
Vuserarea.postalcode
p355
sg5
(dp356
g7
V551
p357
sg9
I45
ssa(dp358
g2
I89
sg3
Vuserarea.postalcode
p359
sg5
(dp360
g7
V560
p361
sg9
I46
ssa(dp362
g2
I90
sg3
Vuserarea.postalcode
p363
sg5
(dp364
g7
V565
p365
sg9
I47
ssa(dp366
g2
I91
sg3
Vuserarea.postalcode
p367
sg5
(dp368
g7
V566
p369
sg9
I47
ssa(dp370
g2
I92
sg3
Vuserarea.postalcode
p371
sg5
(dp372
g7
V570
p373
sg9
I48
ssa(dp374
g2
I93
sg3
Vuserarea.postalcode
p375
sg5
(dp376
g7
V580
p377
sg9
I49
ssa(dp378
g2
I94
sg3
Vuserarea.postalcode
p379
sg5
(dp380
g7
V600
p381
sg9
I50
ssa(dp382
g2
I95
sg3
Vuserarea.postalcode
p383
sg5
(dp384
g7
V601
p385
sg9
I50
ssa(dp386
g2
I96
sg3
Vuserarea.postalcode
p387
sg5
(dp388
g7
V603
p389
sg9
I50
ssa(dp390
g2
I97
sg3
Vuserarea.postalcode
p391
sg5
(dp392
g7
V610
p393
sg9
I51
ssa(dp394
g2
I98
sg3
Vuserarea.postalcode
p395
sg5
(dp396
g7
V611
p397
sg9
I52
ssa(dp398
g2
I99
sg3
Vuserarea.postalcode
p399
sg5
(dp400
g7
V620
p401
sg9
I53
ssa(dp402
g2
I100
sg3
Vuserarea.postalcode
p403
sg5
(dp404
g7
V621
p405
sg9
I53
ssa(dp406
g2
I101
sg3
Vuserarea.postalcode
p407
sg5
(dp408
g7
V625
p409
sg9
I54
ssa(dp410
g2
I102
sg3
Vuserarea.postalcode
p411
sg5
(dp412
g7
V630
p413
sg9
I55
ssa(dp414
g2
I103
sg3
Vuserarea.postalcode
p415
sg5
(dp416
g7
V640
p417
sg9
I56
ssa(dp418
g2
I104
sg3
Vuserarea.postalcode
p419
sg5
(dp420
g7
V641
p421
sg9
I56
ssa(dp422
g2
I105
sg3
Vuserarea.postalcode
p423
sg5
(dp424
g7
V645
p425
sg9
I57
ssa(dp426
g2
I106
sg3
Vuserarea.postalcode
p427
sg5
(dp428
g7
V650
p429
sg9
I58
ssa(dp430
g2
I107
sg3
Vuserarea.postalcode
p431
sg5
(dp432
g7
V660
p433
sg9
I59
ssa(dp434
g2
I108
sg3
Vuserarea.postalcode
p435
sg5
(dp436
g7
V670
p437
sg9
I60
ssa(dp438
g2
I109
sg3
Vuserarea.postalcode
p439
sg5
(dp440
g7
V671
p441
sg9
I60
ssa(dp442
g2
I110
sg3
Vuserarea.postalcode
p443
sg5
(dp444
g7
V675
p445
sg9
I61
ssa(dp446
g2
I111
sg3
Vuserarea.postalcode
p447
sg5
(dp448
g7
V680
p449
sg9
I62
ssa(dp450
g2
I112
sg3
Vuserarea.postalcode
p451
sg5
(dp452
g7
V681
p453
sg9
I62
ssa(dp454
g2
I113
sg3
Vuserarea.postalcode
p455
sg5
(dp456
g7
V685
p457
sg9
I63
ssa(dp458
g2
I114
sg3
Vuserarea.postalcode
p459
sg5
(dp460
g7
V690
p461
sg9
I64
ssa(dp462
g2
I115
sg3
Vuserarea.postalcode
p463
sg5
(dp464
g7
V700
p465
sg9
I65
ssa(dp466
g2
I116
sg3
Vuserarea.postalcode
p467
sg5
(dp468
g7
V701
p469
sg9
I65
ssa(dp470
g2
I117
sg3
Vuserarea.postalcode
p471
sg5
(dp472
g7
V710
p473
sg9
I66
ssa(dp474
g2
I118
sg3
Vuserarea.postalcode
p475
sg5
(dp476
g7
V715
p477
sg9
I67
ssa(dp478
g2
I119
sg3
Vuserarea.postalcode
p479
sg5
(dp480
g7
V720
p481
sg9
I68
ssa(dp482
g2
I120
sg3
Vuserarea.postalcode
p483
sg5
(dp484
g7
V730
p485
sg9
I69
ssa(dp486
g2
I121
sg3
Vuserarea.postalcode
p487
sg5
(dp488
g7
V735
p489
sg9
I70
ssa(dp490
g2
I122
sg3
Vuserarea.postalcode
p491
sg5
(dp492
g7
V740
p493
sg9
I71
ssa(dp494
g2
I123
sg3
Vuserarea.postalcode
p495
sg5
(dp496
g7
V750
p497
sg9
I72
ssa(dp498
g2
I124
sg3
Vuserarea.postalcode
p499
sg5
(dp500
g7
V755
p501
sg9
I73
ssa(dp502
g2
I125
sg3
Vuserarea.postalcode
p503
sg5
(dp504
g7
V760
p505
sg9
I74
ssa(dp506
g2
I126
sg3
Vuserarea.postalcode
p507
sg5
(dp508
g7
V765
p509
sg9
I75
ssa(dp510
g2
I127
sg3
Vuserarea.postalcode
p511
sg5
(dp512
g7
V780
p513
sg9
I76
ssa(dp514
g2
I128
sg3
Vuserarea.postalcode
p515
sg5
(dp516
g7
V781
p517
sg9
I76
ssa(dp518
g2
I129
sg3
Vuserarea.postalcode
p519
sg5
(dp520
g7
V785
p521
sg9
I77
ssa(dp522
g2
I130
sg3
Vuserarea.postalcode
p523
sg5
(dp524
g7
V800
p525
sg9
I78
ssa(dp526
g2
I131
sg3
Vuserarea.postalcode
p527
sg5
(dp528
g7
V801
p529
sg9
I78
ssa(dp530
g2
I132
sg3
Vuserarea.postalcode
p531
sg5
(dp532
g7
V802
p533
sg9
I78
ssa(dp534
g2
I133
sg3
Vuserarea.postalcode
p535
sg5
(dp536
g7
V810
p537
sg9
I79
ssa(dp538
g2
I134
sg3
Vuserarea.postalcode
p539
sg5
(dp540
g7
V815
p541
sg9
I80
ssa(dp542
g2
I135
sg3
Vuserarea.postalcode
p543
sg5
(dp544
g7
V820
p545
sg9
I81
ssa(dp546
g2
I136
sg3
Vuserarea.postalcode
p547
sg5
(dp548
g7
V825
p549
sg9
I82
ssa(dp550
g2
I137
sg3
Vuserarea.postalcode
p551
sg5
(dp552
g7
V840
p553
sg9
I83
ssa(dp554
g2
I138
sg3
Vuserarea.postalcode
p555
sg5
(dp556
g7
V845
p557
sg9
I84
ssa(dp558
g2
I139
sg3
Vuserarea.postalcode
p559
sg5
(dp560
g7
V850
p561
sg9
I85
ssa(dp562
g2
I140
sg3
Vuserarea.postalcode
p563
sg5
(dp564
g7
V851
p565
sg9
I85
ssa(dp566
g2
I141
sg3
Vuserarea.postalcode
p567
sg5
(dp568
g7
V860
p569
sg9
I86
ssa(dp570
g2
I142
sg3
Vuserarea.postalcode
p571
sg5
(dp572
g7
V861
p573
sg9
I86
ssa(dp574
g2
I143
sg3
Vuserarea.postalcode
p575
sg5
(dp576
g7
V870
p577
sg9
I87
ssa(dp578
g2
I144
sg3
Vuserarea.postalcode
p579
sg5
(dp580
g7
V871
p581
sg9
I87
ssa(dp582
g2
I145
sg3
Vuserarea.postalcode
p583
sg5
(dp584
g7
V880
p585
sg9
I88
ssa(dp586
g2
I146
sg3
Vuserarea.postalcode
p587
sg5
(dp588
g7
V900
p589
sg9
I89
ssa(dp590
g2
I147
sg3
Vuserarea.postalcode
p591
sg5
(dp592
g7
V902
p593
sg9
I89
ssa(dp594
g2
I148
sg3
Vuserarea.postalcode
p595
sg5
(dp596
g7
V999
p597
sg9
I90
ssa.